; ModuleID = 'source-C-CXX/44/1079.c'
source_filename = "source-C-CXX/44/1079.c"
target datalayout = "e-m:e-p270:32:32-p271:32:32-p272:64:64-i64:64-f80:128-n8:16:32:64-S128"
target triple = "x86_64-pc-linux-gnu"

@.str = private unnamed_addr constant [5 x i8] c"%s%s\00", align 1
@.str.1 = private unnamed_addr constant [4 x i8] c"%d\0A\00", align 1

; Function Attrs: nofree nounwind sspstrong uwtable
define dso_local i32 @main() local_unnamed_addr #0 {
  %1 = alloca [100 x i8], align 16
  %2 = alloca [100 x i8], align 16
  %3 = getelementptr inbounds [100 x i8], [100 x i8]* %1, i64 0, i64 0
  call void @llvm.lifetime.start.p0i8(i64 100, i8* nonnull %3) #4
  %4 = getelementptr inbounds [100 x i8], [100 x i8]* %2, i64 0, i64 0
  call void @llvm.lifetime.start.p0i8(i64 100, i8* nonnull %4) #4
  %5 = call i32 (i8*, ...) @__isoc99_scanf(i8* getelementptr inbounds ([5 x i8], [5 x i8]* @.str, i64 0, i64 0), i8* nonnull %3, i8* nonnull %4)
  %6 = call i64 @strlen(i8* noundef nonnull %4) #5
  %7 = icmp eq i64 %6, 0
  br i1 %7, label %34, label %8

8:                                                ; preds = %0
  %9 = call i64 @strlen(i8* noundef nonnull %3) #5
  %10 = icmp eq i64 %9, 0
  br i1 %10, label %34, label %11

11:                                               ; preds = %8, %25
  %12 = phi i64 [ %26, %25 ], [ 0, %8 ]
  br label %13

13:                                               ; preds = %11, %28
  %14 = phi i64 [ 0, %11 ], [ %29, %28 ]
  %15 = getelementptr inbounds [100 x i8], [100 x i8]* %1, i64 0, i64 %14
  %16 = load i8, i8* %15, align 1, !tbaa !5
  %17 = add nuw nsw i64 %14, %12
  %18 = getelementptr inbounds [100 x i8], [100 x i8]* %2, i64 0, i64 %17
  %19 = load i8, i8* %18, align 1, !tbaa !5
  %20 = icmp eq i8 %16, %19
  br i1 %20, label %28, label %21

21:                                               ; preds = %28, %13
  %22 = phi i64 [ %14, %13 ], [ %9, %28 ]
  %23 = and i64 %22, 4294967295
  %24 = icmp eq i64 %9, %23
  br i1 %24, label %31, label %25

25:                                               ; preds = %21
  %26 = add nuw i64 %12, 1
  %27 = icmp eq i64 %26, %6
  br i1 %27, label %31, label %11, !llvm.loop !8

28:                                               ; preds = %13
  %29 = add nuw i64 %14, 1
  %30 = icmp eq i64 %29, %9
  br i1 %30, label %21, label %13, !llvm.loop !10

31:                                               ; preds = %21, %25
  %32 = phi i64 [ %6, %25 ], [ %12, %21 ]
  %33 = trunc i64 %32 to i32
  br label %34

34:                                               ; preds = %8, %31, %0
  %35 = phi i32 [ 0, %0 ], [ %33, %31 ], [ 0, %8 ]
  %36 = call i32 (i8*, ...) @printf(i8* nonnull dereferenceable(1) getelementptr inbounds ([4 x i8], [4 x i8]* @.str.1, i64 0, i64 0), i32 %35)
  call void @llvm.lifetime.end.p0i8(i64 100, i8* nonnull %4) #4
  call void @llvm.lifetime.end.p0i8(i64 100, i8* nonnull %3) #4
  ret i32 0
}

; Function Attrs: argmemonly mustprogress nofree nosync nounwind willreturn
declare void @llvm.lifetime.start.p0i8(i64 immarg, i8* nocapture) #1

; Function Attrs: nofree nounwind
declare noundef i32 @__isoc99_scanf(i8* nocapture noundef readonly, ...) local_unnamed_addr #2

; Function Attrs: argmemonly mustprogress nofree nounwind readonly willreturn
declare i64 @strlen(i8* nocapture) local_unnamed_addr #3

; Function Attrs: nofree nounwind
declare noundef i32 @printf(i8* nocapture noundef readonly, ...) local_unnamed_addr #2

; Function Attrs: argmemonly mustprogress nofree nosync nounwind willreturn
declare void @llvm.lifetime.end.p0i8(i64 immarg, i8* nocapture) #1


!llvm.module.flags = !{!0, !1, !2, !3}
!llvm.ident = !{!4}

!0 = !{i32 1, !"wchar_size", i32 4}
!1 = !{i32 7, !"PIC Level", i32 2}
!2 = !{i32 7, !"PIE Level", i32 2}
!3 = !{i32 7, !"uwtable", i32 1}
!4 = !{!"clang version 13.0.0"}
!5 = !{!6, !6, i64 0}
!6 = !{!"omnipotent char", !7, i64 0}
!7 = !{!"Simple C/C++ TBAA"}
!8 = distinct !{!8, !9}
!9 = !{!"llvm.loop.mustprogress"}
!10 = distinct !{!10, !9}
